; Function Attrs: mustprogress nounwind uwtable
define hidden void @_ZN25InterpreterMacroAssembler32prepare_to_jump_from_interpretedEv(ptr noundef nonnull align 8 dereferenceable(48) %0) local_unnamed_addr #0 align 2 {
  %2 = alloca %class.Address, align 8
  %3 = alloca %class.Address, align 16
  %4 = alloca %class.Address, align 16
  %5 = getelementptr inbounds i8, ptr %0, i64 44
  %.sroa.08.0.copyload = load i32, ptr %5, align 4
  store <4 x i32> <i32 4, i32 -1, i32 -1, i32 -1>, ptr %3, align 16
  %6 = getelementptr inbounds i8, ptr %3, i64 16
  store i32 8, ptr %6, align 16
  %7 = getelementptr inbounds i8, ptr %3, i64 20
  store i8 0, ptr %7, align 4
  %8 = getelementptr inbounds i8, ptr %3, i64 24
  store ptr getelementptr inbounds inrange(-16, 72) (i8, ptr @_ZTV10Relocation, i64 16), ptr %8, align 8
  %9 = getelementptr inbounds i8, ptr %3, i64 32
  store ptr null, ptr %9, align 16
  %10 = getelementptr inbounds i8, ptr %3, i64 40
  store i32 0, ptr %10, align 8
  call void @llvm.lifetime.start.p0(i64 64, ptr nonnull %2)
  call void @llvm.memcpy.p0.p0.i64(ptr noundef nonnull align 8 dereferenceable(21) %2, ptr noundef nonnull align 16 dereferenceable(21) %3, i64 21, i1 false)
  %11 = getelementptr inbounds i8, ptr %2, i64 24
  %12 = load ptr, ptr getelementptr inbounds inrange(-32, 56) (i8, ptr @_ZTV10Relocation, i64 32), align 8
  call void %12(ptr noundef nonnull align 8 dereferenceable(20) %8, ptr noundef nonnull align 8 dereferenceable(40) %11) #8
  call void @_ZN9Assembler3leaE8Register7Address(ptr noundef nonnull align 8 dereferenceable(40) %0, i32 %.sroa.08.0.copyload, ptr noundef nonnull %2) #8
  call void @llvm.lifetime.end.p0(i64 64, ptr nonnull %2)
  %.sroa.05.0.copyload = load i32, ptr %5, align 4
  call void @_ZN9Assembler3movE8RegisterS0_(ptr noundef nonnull align 8 dereferenceable(40) %0, i32 1, i32 %.sroa.05.0.copyload) #8
  call void @_ZN14MacroAssembler6subptrE8RegisterS0_(ptr noundef nonnull align 8 dereferenceable(40) %0, i32 1, i32 5) #8
  call void @_ZN9Assembler4sarqE8Registeri(ptr noundef nonnull align 8 dereferenceable(40) %0, i32 1, i32 noundef 3) #8
  store <4 x i32> <i32 5, i32 -1, i32 -1, i32 -1>, ptr %4, align 16
  %13 = getelementptr inbounds i8, ptr %4, i64 16
  store i32 -16, ptr %13, align 16
  %14 = getelementptr inbounds i8, ptr %4, i64 20
  store i8 0, ptr %14, align 4
  %15 = getelementptr inbounds i8, ptr %4, i64 24
  store ptr getelementptr inbounds inrange(-16, 72) (i8, ptr @_ZTV10Relocation, i64 16), ptr %15, align 8
  %16 = getelementptr inbounds i8, ptr %4, i64 32
  store ptr null, ptr %16, align 16
  %17 = getelementptr inbounds i8, ptr %4, i64 40
  store i32 0, ptr %17, align 8
  call void @_ZN14MacroAssembler6movptrE7Address8Register(ptr noundef nonnull align 8 dereferenceable(40) %0, ptr noundef nonnull %4, i32 1) #8
  ret void
}